; Function Attrs: nounwind uwtable
define internal void @SDL_PlayerLEDHintChanged(ptr noundef captures(none) %0, ptr readnone captures(none) %1, ptr readnone captures(none) %2, ptr noundef %3) #0 {
  %5 = alloca [12 x i8], align 1
  %6 = alloca [12 x i8], align 1
  %7 = tail call zeroext i1 @SDL_GetStringBoolean(ptr noundef %3, i1 noundef zeroext true) #8
  %8 = getelementptr inbounds nuw i8, ptr %0, i64 16
  %9 = load i8, ptr %8, align 8, !range !3, !noundef !4
  %10 = zext i1 %7 to i8
  %.not = icmp eq i8 %9, %10
  br i1 %.not, label %32, label %11

11:                                               ; preds = %4
  store i8 %10, ptr %8, align 8
  br i1 %7, label %12, label %25

12:                                               ; preds = %11
  %13 = getelementptr inbounds nuw i8, ptr %0, i64 12
  %14 = load i32, ptr %13, align 4
  %15 = icmp sgt i32 %14, -1
  br i1 %15, label %16, label %25

16:                                               ; preds = %12
  %17 = load ptr, ptr %0, align 8
  %18 = getelementptr inbounds nuw i8, ptr %17, i64 128
  %19 = load ptr, ptr %18, align 8
  %20 = trunc i32 %14 to i8
  %21 = and i8 %20, 3
  call void @llvm.lifetime.start.p0(i64 12, ptr nonnull %6) #8
  call void @llvm.memcpy.p0.p0.i64(ptr noundef nonnull align 1 dereferenceable(12) %6, ptr noundef nonnull align 1 dereferenceable(12) @__const.SetSlotLED.led_packet, i64 12, i1 false)
  %22 = add nuw nsw i8 %21, 70
  %23 = getelementptr inbounds nuw i8, ptr %6, i64 3
  store i8 %22, ptr %23, align 1
  %24 = call i32 @SDL_hid_write_REAL(ptr noundef %19, ptr noundef nonnull %6, i64 noundef 12) #8
  call void @llvm.lifetime.end.p0(i64 12, ptr nonnull %6) #8
  br label %UpdateSlotLED.exit

25:                                               ; preds = %12, %11
  %26 = load ptr, ptr %0, align 8
  %27 = getelementptr inbounds nuw i8, ptr %26, i64 128
  %28 = load ptr, ptr %27, align 8
  call void @llvm.lifetime.start.p0(i64 12, ptr nonnull %5) #8
  call void @llvm.memcpy.p0.p0.i64(ptr noundef nonnull align 1 dereferenceable(12) %5, ptr noundef nonnull align 1 dereferenceable(12) @__const.SetSlotLED.led_packet, i64 12, i1 false)
  %29 = getelementptr inbounds nuw i8, ptr %5, i64 3
  store i8 64, ptr %29, align 1
  %30 = call i32 @SDL_hid_write_REAL(ptr noundef %28, ptr noundef nonnull %5, i64 noundef 12) #8
  call void @llvm.lifetime.end.p0(i64 12, ptr nonnull %5) #8
  br label %UpdateSlotLED.exit

UpdateSlotLED.exit:                               ; preds = %16, %25
  %31 = load ptr, ptr %0, align 8
  call void @HIDAPI_UpdateDeviceProperties(ptr noundef %31) #8
  br label %32

32:                                               ; preds = %UpdateSlotLED.exit, %4
  ret void
}